target datalayout = "e-m:e-p270:32:32-p271:32:32-p272:64:64-i64:64-i128:128-f80:128-n8:16:32:64-S128"
target triple = "x86_64-pc-linux-gnu"

@.str = private unnamed_addr constant [17 x i8] c"/proc/self/statm\00", align 1
@.str.1 = private unnamed_addr constant [2 x i8] c"r\00", align 1
@.str.2 = private unnamed_addr constant [7 x i8] c"%*s%ld\00", align 1

; Function Attrs: mustprogress uwtable
define hidden noundef i64 @_ZN4lean15get_current_rssEv() #3 {
  %1 = alloca i64, align 8
  %2 = alloca i64, align 8
  %3 = alloca ptr, align 8
  %4 = alloca i32, align 4
  call void @llvm.lifetime.start.p0(i64 8, ptr %2) #10
  store i64 0, ptr %2, align 8, !tbaa !6
  call void @llvm.lifetime.start.p0(i64 8, ptr %3) #10
  store ptr null, ptr %3, align 8, !tbaa !8
  %5 = call noalias ptr @fopen(ptr noundef @.str, ptr noundef @.str.1)
  store ptr %5, ptr %3, align 8, !tbaa !8
  %6 = icmp eq ptr %5, null
  br i1 %6, label %7, label %8

7:                                                ; preds = %0
  store i64 0, ptr %1, align 8
  store i32 1, ptr %4, align 4
  br label %21

8:                                                ; preds = %0
  %9 = load ptr, ptr %3, align 8, !tbaa !8
  %10 = call i32 (ptr, ptr, ...) @__isoc23_fscanf(ptr noundef %9, ptr noundef @.str.2, ptr noundef %2)
  %11 = icmp ne i32 %10, 1
  br i1 %11, label %12, label %15

12:                                               ; preds = %8
  %13 = load ptr, ptr %3, align 8, !tbaa !8
  %14 = call i32 @fclose(ptr noundef %13)
  store i64 0, ptr %1, align 8
  store i32 1, ptr %4, align 4
  br label %21

15:                                               ; preds = %8
  %16 = load ptr, ptr %3, align 8, !tbaa !8
  %17 = call i32 @fclose(ptr noundef %16)
  %18 = load i64, ptr %2, align 8, !tbaa !6
  %19 = call i64 @sysconf(i32 noundef 30) #10
  %20 = mul i64 %18, %19
  store i64 %20, ptr %1, align 8
  store i32 1, ptr %4, align 4
  br label %21

21:                                               ; preds = %15, %12, %7
  call void @llvm.lifetime.end.p0(i64 8, ptr %3) #10
  call void @llvm.lifetime.end.p0(i64 8, ptr %2) #10
  %22 = load i64, ptr %1, align 8
  ret i64 %22
}