; Function Attrs: mustprogress uwtable
define hidden noundef i64 @_ZN4lean15get_current_rssEv() local_unnamed_addr #3 {
  %1 = alloca i64, align 8
  call void @llvm.lifetime.start.p0(i64 8, ptr nonnull %1) #13
  store i64 0, ptr %1, align 8, !tbaa !6
  %2 = tail call noalias ptr @fopen(ptr noundef nonnull @.str, ptr noundef nonnull @.str.1)
  %3 = icmp eq ptr %2, null
  br i1 %3, label %11, label %4

4:                                                ; preds = %0
  %5 = call i32 (ptr, ptr, ...) @__isoc23_fscanf(ptr noundef nonnull %2, ptr noundef nonnull @.str.2, ptr noundef nonnull %1)
  %.not = icmp eq i32 %5, 1
  %6 = call i32 @fclose(ptr noundef nonnull %2)
  br i1 %.not, label %7, label %11

7:                                                ; preds = %4
  %8 = load i64, ptr %1, align 8, !tbaa !6
  %9 = call i64 @sysconf(i32 noundef 30) #13
  %10 = mul i64 %9, %8
  br label %11

11:                                               ; preds = %4, %0, %7
  %.0 = phi i64 [ %10, %7 ], [ 0, %0 ], [ 0, %4 ]
  call void @llvm.lifetime.end.p0(i64 8, ptr nonnull %1) #13
  ret i64 %.0
}